target datalayout = "e-m:e-p270:32:32-p271:32:32-p272:64:64-i64:64-i128:128-f80:128-n8:16:32:64-S128"
target triple = "x86_64-pc-linux-gnu"

%struct.write_midx_context = type { ptr, i64, i64, ptr, ptr, ptr, i32, ptr, i64, ptr, ptr, i8, i32, i32, i32, i32, ptr, ptr }
%struct.repository = type { ptr, ptr, ptr, ptr, ptr, %struct.strmap, %struct.strmap, %struct.repo_path_cache, ptr, ptr, ptr, ptr, %struct.repo_settings, ptr, ptr, ptr, ptr, ptr, ptr, i32, i32, i32, ptr, ptr, i32, i32, i8 }
%struct.strmap = type { %struct.hashmap, ptr, i8 }
%struct.hashmap = type { ptr, ptr, ptr, i32, i32, i32, i32, i8 }
%struct.repo_path_cache = type { ptr, ptr, ptr, ptr, ptr, ptr, ptr }
%struct.repo_settings = type { i32, i32, i32, i32, i32, i32, i32, i32, i32, i32, i32, i32, ptr, i32, i32, i32, i32, i32, i32, i32, i64, i64, i64 }
%struct.pack_midx_entry = type { %struct.object_id, i32, i64, i64, i8 }
%struct.object_id = type { [32 x i8], i32 }
%struct.git_hash_algo = type { ptr, i32, i64, i64, i64, ptr, ptr, ptr, ptr, ptr, ptr, ptr, ptr, ptr }

@.str.16 = private unnamed_addr constant [13 x i8] c"midx-write.c\00", align 1
@.str.50 = private unnamed_addr constant [28 x i8] c"OIDs not in order: %s >= %s\00", align 1

; Function Attrs: inlinehint nounwind uwtable
define internal i32 @oidcmp(ptr noundef %0, ptr noundef %1) #4 {
  %3 = alloca ptr, align 8
  %4 = alloca ptr, align 8
  store ptr %0, ptr %3, align 8, !tbaa !205
  store ptr %1, ptr %4, align 8, !tbaa !205
  %5 = load ptr, ptr %3, align 8, !tbaa !205
  %6 = getelementptr inbounds nuw %struct.object_id, ptr %5, i32 0, i32 0
  %7 = getelementptr inbounds [32 x i8], ptr %6, i64 0, i64 0
  %8 = load ptr, ptr %4, align 8, !tbaa !205
  %9 = getelementptr inbounds nuw %struct.object_id, ptr %8, i32 0, i32 0
  %10 = getelementptr inbounds [32 x i8], ptr %9, i64 0, i64 0
  %11 = call i32 @memcmp(ptr noundef %7, ptr noundef %10, i64 noundef 32) #13
  ret i32 %11
}

; Function Attrs: nounwind uwtable
define internal i32 @write_midx_oid_lookup(ptr noundef %0, ptr noundef %1) #0 {
  %3 = alloca ptr, align 8
  %4 = alloca ptr, align 8
  %5 = alloca ptr, align 8
  %6 = alloca i8, align 1
  %7 = alloca ptr, align 8
  %8 = alloca i32, align 4
  %9 = alloca ptr, align 8
  %10 = alloca ptr, align 8
  store ptr %0, ptr %3, align 8, !tbaa !15
  store ptr %1, ptr %4, align 8, !tbaa !137
  call void @llvm.lifetime.start.p0(i64 8, ptr %5) #11
  %11 = load ptr, ptr %4, align 8, !tbaa !137
  store ptr %11, ptr %5, align 8, !tbaa !133
  call void @llvm.lifetime.start.p0(i64 1, ptr %6) #11
  %12 = load ptr, ptr %5, align 8, !tbaa !133
  %13 = getelementptr inbounds nuw %struct.write_midx_context, ptr %12, i32 0, i32 17
  %14 = load ptr, ptr %13, align 8, !tbaa !19
  %15 = getelementptr inbounds nuw %struct.repository, ptr %14, i32 0, i32 17
  %16 = load ptr, ptr %15, align 8, !tbaa !28
  %17 = getelementptr inbounds nuw %struct.git_hash_algo, ptr %16, i32 0, i32 2
  %18 = load i64, ptr %17, align 8, !tbaa !94
  %19 = trunc i64 %18 to i8
  store i8 %19, ptr %6, align 1, !tbaa !114
  call void @llvm.lifetime.start.p0(i64 8, ptr %7) #11
  %20 = load ptr, ptr %5, align 8, !tbaa !133
  %21 = getelementptr inbounds nuw %struct.write_midx_context, ptr %20, i32 0, i32 7
  %22 = load ptr, ptr %21, align 8, !tbaa !75
  store ptr %22, ptr %7, align 8, !tbaa !152
  call void @llvm.lifetime.start.p0(i64 4, ptr %8) #11
  store i32 0, ptr %8, align 4, !tbaa !11
  br label %23

23:                                               ; preds = %64, %2
  %24 = load i32, ptr %8, align 4, !tbaa !11
  %25 = zext i32 %24 to i64
  %26 = load ptr, ptr %5, align 8, !tbaa !133
  %27 = getelementptr inbounds nuw %struct.write_midx_context, ptr %26, i32 0, i32 8
  %28 = load i64, ptr %27, align 8, !tbaa !74
  %29 = icmp ult i64 %25, %28
  br i1 %29, label %30, label %67

30:                                               ; preds = %23
  call void @llvm.lifetime.start.p0(i64 8, ptr %9) #11
  %31 = load ptr, ptr %7, align 8, !tbaa !152
  %32 = getelementptr inbounds nuw %struct.pack_midx_entry, ptr %31, i32 1
  store ptr %32, ptr %7, align 8, !tbaa !152
  store ptr %31, ptr %9, align 8, !tbaa !152
  %33 = load i32, ptr %8, align 4, !tbaa !11
  %34 = zext i32 %33 to i64
  %35 = load ptr, ptr %5, align 8, !tbaa !133
  %36 = getelementptr inbounds nuw %struct.write_midx_context, ptr %35, i32 0, i32 8
  %37 = load i64, ptr %36, align 8, !tbaa !74
  %38 = sub i64 %37, 1
  %39 = icmp ult i64 %34, %38
  br i1 %39, label %40, label %56

40:                                               ; preds = %30
  call void @llvm.lifetime.start.p0(i64 8, ptr %10) #11
  %41 = load ptr, ptr %7, align 8, !tbaa !152
  store ptr %41, ptr %10, align 8, !tbaa !152
  %42 = load ptr, ptr %9, align 8, !tbaa !152
  %43 = getelementptr inbounds nuw %struct.pack_midx_entry, ptr %42, i32 0, i32 0
  %44 = load ptr, ptr %10, align 8, !tbaa !152
  %45 = getelementptr inbounds nuw %struct.pack_midx_entry, ptr %44, i32 0, i32 0
  %46 = call i32 @oidcmp(ptr noundef %43, ptr noundef %45)
  %47 = icmp sge i32 %46, 0
  br i1 %47, label %48, label %55

48:                                               ; preds = %40
  %49 = load ptr, ptr %9, align 8, !tbaa !152
  %50 = getelementptr inbounds nuw %struct.pack_midx_entry, ptr %49, i32 0, i32 0
  %51 = call ptr @oid_to_hex(ptr noundef %50)
  %52 = load ptr, ptr %10, align 8, !tbaa !152
  %53 = getelementptr inbounds nuw %struct.pack_midx_entry, ptr %52, i32 0, i32 0
  %54 = call ptr @oid_to_hex(ptr noundef %53)
  call void (ptr, i32, ptr, ...) @BUG_fl(ptr noundef @.str.16, i32 noundef 497, ptr noundef @.str.50, ptr noundef %51, ptr noundef %54) #12
  unreachable

55:                                               ; preds = %40
  call void @llvm.lifetime.end.p0(i64 8, ptr %10) #11
  br label %56

56:                                               ; preds = %55, %30
  %57 = load ptr, ptr %3, align 8, !tbaa !15
  %58 = load ptr, ptr %9, align 8, !tbaa !152
  %59 = getelementptr inbounds nuw %struct.pack_midx_entry, ptr %58, i32 0, i32 0
  %60 = getelementptr inbounds nuw %struct.object_id, ptr %59, i32 0, i32 0
  %61 = getelementptr inbounds [32 x i8], ptr %60, i64 0, i64 0
  %62 = load i8, ptr %6, align 1, !tbaa !114
  %63 = zext i8 %62 to i32
  call void @hashwrite(ptr noundef %57, ptr noundef %61, i32 noundef %63)
  call void @llvm.lifetime.end.p0(i64 8, ptr %9) #11
  br label %64

64:                                               ; preds = %56
  %65 = load i32, ptr %8, align 4, !tbaa !11
  %66 = add i32 %65, 1
  store i32 %66, ptr %8, align 4, !tbaa !11
  br label %23, !llvm.loop !155

67:                                               ; preds = %23
  call void @llvm.lifetime.end.p0(i64 4, ptr %8) #11
  call void @llvm.lifetime.end.p0(i64 8, ptr %7) #11
  call void @llvm.lifetime.end.p0(i64 1, ptr %6) #11
  call void @llvm.lifetime.end.p0(i64 8, ptr %5) #11
  ret i32 0
}