; Function Attrs: nounwind uwtable
define internal noundef i32 @write_midx_oid_lookup(ptr noundef %0, ptr noundef readonly captures(none) %1) #0 {
  %3 = getelementptr inbounds nuw i8, ptr %1, i64 64
  %4 = load i64, ptr %3, align 8, !tbaa !79
  %.not = icmp eq i64 %4, 0
  br i1 %.not, label %._crit_edge, label %.lr.ph

.lr.ph:                                           ; preds = %2
  %5 = getelementptr inbounds nuw i8, ptr %1, i64 56
  %6 = load ptr, ptr %5, align 8, !tbaa !78
  %7 = getelementptr inbounds nuw i8, ptr %1, i64 120
  %8 = load ptr, ptr %7, align 8, !tbaa !4
  %9 = getelementptr inbounds nuw i8, ptr %8, i64 400
  %10 = load ptr, ptr %9, align 8, !tbaa !19
  %11 = getelementptr inbounds nuw i8, ptr %10, i64 16
  %12 = load i64, ptr %11, align 8, !tbaa !104
  %13 = trunc i64 %12 to i32
  %14 = and i32 %13, 255
  br label %15

15:                                               ; preds = %.lr.ph, %27
  %16 = phi i64 [ %4, %.lr.ph ], [ %30, %27 ]
  %17 = phi i64 [ 0, %.lr.ph ], [ %29, %27 ]
  %.021 = phi ptr [ %6, %.lr.ph ], [ %18, %27 ]
  %.01620 = phi i32 [ 0, %.lr.ph ], [ %28, %27 ]
  %18 = getelementptr inbounds nuw i8, ptr %.021, i64 64
  %19 = add i64 %16, -1
  %20 = icmp ugt i64 %19, %17
  br i1 %20, label %21, label %27

21:                                               ; preds = %15
  %22 = tail call i32 @memcmp(ptr noundef nonnull readonly dereferenceable(32) %.021, ptr noundef nonnull readonly dereferenceable(32) %18, i64 noundef 32) #21
  %23 = icmp sgt i32 %22, -1
  br i1 %23, label %24, label %27

24:                                               ; preds = %21
  %25 = tail call ptr @oid_to_hex(ptr noundef nonnull %.021) #19
  %26 = tail call ptr @oid_to_hex(ptr noundef nonnull %18) #19
  tail call void (ptr, i32, ptr, ...) @BUG_fl(ptr noundef nonnull @.str.16, i32 noundef 497, ptr noundef nonnull @.str.50, ptr noundef %25, ptr noundef %26) #20
  unreachable

27:                                               ; preds = %21, %15
  tail call void @hashwrite(ptr noundef %0, ptr noundef %.021, i32 noundef %14) #19
  %28 = add i32 %.01620, 1
  %29 = zext i32 %28 to i64
  %30 = load i64, ptr %3, align 8, !tbaa !79
  %31 = icmp ugt i64 %30, %29
  br i1 %31, label %15, label %._crit_edge, !llvm.loop !210

._crit_edge:                                      ; preds = %27, %2
  ret i32 0
}